target datalayout = "e-m:e-p270:32:32-p271:32:32-p272:64:64-i64:64-i128:128-f80:128-n8:16:32:64-S128"
target triple = "x86_64-pc-linux-gnu"

%class.ezMiniSAT = type { %class.ezSAT.base, ptr, %"class.std::vector.14", i8, %"class.std::set" }
%class.ezSAT.base = type <{ ptr, i8, i8, i8, [5 x i8], %"class.std::map", %"class.std::vector", %"class.std::map.3", %"class.std::vector.9", i8, [3 x i8], i32, i32, [4 x i8], %"class.std::vector.14", %"class.std::vector.14", %"class.std::vector.19", %"class.std::vector.19", i32, i8, [3 x i8], i32 }>
%"class.std::map" = type { %"class.std::_Rb_tree" }
%"class.std::_Rb_tree" = type { %"struct.std::_Rb_tree<std::__cxx11::basic_string<char>, std::pair<const std::__cxx11::basic_string<char>, int>, std::_Select1st<std::pair<const std::__cxx11::basic_string<char>, int>>, std::less<std::__cxx11::basic_string<char>>>::_Rb_tree_impl" }
%"struct.std::_Rb_tree<std::__cxx11::basic_string<char>, std::pair<const std::__cxx11::basic_string<char>, int>, std::_Select1st<std::pair<const std::__cxx11::basic_string<char>, int>>, std::less<std::__cxx11::basic_string<char>>>::_Rb_tree_impl" = type { [8 x i8], %"struct.std::_Rb_tree_header" }
%"struct.std::_Rb_tree_header" = type { %"struct.std::_Rb_tree_node_base", i64 }
%"struct.std::_Rb_tree_node_base" = type { i32, ptr, ptr, ptr }
%"class.std::vector" = type { %"struct.std::_Vector_base" }
%"struct.std::_Vector_base" = type { %"struct.std::_Vector_base<std::__cxx11::basic_string<char>, std::allocator<std::__cxx11::basic_string<char>>>::_Vector_impl" }
%"struct.std::_Vector_base<std::__cxx11::basic_string<char>, std::allocator<std::__cxx11::basic_string<char>>>::_Vector_impl" = type { %"struct.std::_Vector_base<std::__cxx11::basic_string<char>, std::allocator<std::__cxx11::basic_string<char>>>::_Vector_impl_data" }
%"struct.std::_Vector_base<std::__cxx11::basic_string<char>, std::allocator<std::__cxx11::basic_string<char>>>::_Vector_impl_data" = type { ptr, ptr, ptr }
%"class.std::map.3" = type { %"class.std::_Rb_tree.4" }
%"class.std::_Rb_tree.4" = type { %"struct.std::_Rb_tree<std::pair<ezSAT::OpId, std::vector<int>>, std::pair<const std::pair<ezSAT::OpId, std::vector<int>>, int>, std::_Select1st<std::pair<const std::pair<ezSAT::OpId, std::vector<int>>, int>>, std::less<std::pair<ezSAT::OpId, std::vector<int>>>>::_Rb_tree_impl" }
%"struct.std::_Rb_tree<std::pair<ezSAT::OpId, std::vector<int>>, std::pair<const std::pair<ezSAT::OpId, std::vector<int>>, int>, std::_Select1st<std::pair<const std::pair<ezSAT::OpId, std::vector<int>>, int>>, std::less<std::pair<ezSAT::OpId, std::vector<int>>>>::_Rb_tree_impl" = type { [8 x i8], %"struct.std::_Rb_tree_header" }
%"class.std::vector.9" = type { %"struct.std::_Vector_base.10" }
%"struct.std::_Vector_base.10" = type { %"struct.std::_Vector_base<std::pair<ezSAT::OpId, std::vector<int>>, std::allocator<std::pair<ezSAT::OpId, std::vector<int>>>>::_Vector_impl" }
%"struct.std::_Vector_base<std::pair<ezSAT::OpId, std::vector<int>>, std::allocator<std::pair<ezSAT::OpId, std::vector<int>>>>::_Vector_impl" = type { %"struct.std::_Vector_base<std::pair<ezSAT::OpId, std::vector<int>>, std::allocator<std::pair<ezSAT::OpId, std::vector<int>>>>::_Vector_impl_data" }
%"struct.std::_Vector_base<std::pair<ezSAT::OpId, std::vector<int>>, std::allocator<std::pair<ezSAT::OpId, std::vector<int>>>>::_Vector_impl_data" = type { ptr, ptr, ptr }
%"class.std::vector.19" = type { %"struct.std::_Vector_base.20" }
%"struct.std::_Vector_base.20" = type { %"struct.std::_Vector_base<std::vector<int>, std::allocator<std::vector<int>>>::_Vector_impl" }
%"struct.std::_Vector_base<std::vector<int>, std::allocator<std::vector<int>>>::_Vector_impl" = type { %"struct.std::_Vector_base<std::vector<int>, std::allocator<std::vector<int>>>::_Vector_impl_data" }
%"struct.std::_Vector_base<std::vector<int>, std::allocator<std::vector<int>>>::_Vector_impl_data" = type { ptr, ptr, ptr }
%"class.std::vector.14" = type { %"struct.std::_Vector_base.15" }
%"struct.std::_Vector_base.15" = type { %"struct.std::_Vector_base<int, std::allocator<int>>::_Vector_impl" }
%"struct.std::_Vector_base<int, std::allocator<int>>::_Vector_impl" = type { %"struct.std::_Vector_base<int, std::allocator<int>>::_Vector_impl_data" }
%"struct.std::_Vector_base<int, std::allocator<int>>::_Vector_impl_data" = type { ptr, ptr, ptr }
%"class.std::set" = type { %"class.std::_Rb_tree.24" }
%"class.std::_Rb_tree.24" = type { %"struct.std::_Rb_tree<int, int, std::_Identity<int>, std::less<int>>::_Rb_tree_impl" }
%"struct.std::_Rb_tree<int, int, std::_Identity<int>, std::less<int>>::_Rb_tree_impl" = type { [8 x i8], %"struct.std::_Rb_tree_header" }

; Function Attrs: mustprogress nounwind uwtable
define linkonce_odr void @_ZNSt12_Destroy_auxILb1EE9__destroyIPiEEvT_S3_(ptr noundef %0, ptr noundef %1) #1 comdat align 2 {
  %3 = alloca ptr, align 8
  %4 = alloca ptr, align 8
  store ptr %0, ptr %3, align 8, !tbaa !76
  store ptr %1, ptr %4, align 8, !tbaa !76
  ret void
}

; Function Attrs: mustprogress nounwind uwtable
define linkonce_odr noundef ptr @_ZNKSt8_Rb_treeIiiSt9_IdentityIiESt4lessIiESaIiEE9_M_mbeginEv(ptr noundef nonnull align 8 dereferenceable(48) %0) #1 comdat align 2 {
  %2 = alloca ptr, align 8
  store ptr %0, ptr %2, align 8, !tbaa !198
  %3 = load ptr, ptr %2, align 8
  %4 = getelementptr inbounds nuw %"class.std::_Rb_tree.24", ptr %3, i32 0, i32 0
  %5 = getelementptr inbounds i8, ptr %4, i64 8
  %6 = getelementptr inbounds nuw %"struct.std::_Rb_tree_header", ptr %5, i32 0, i32 0
  %7 = getelementptr inbounds nuw %"struct.std::_Rb_tree_node_base", ptr %6, i32 0, i32 1
  %8 = load ptr, ptr %7, align 8, !tbaa !211
  ret ptr %8
}

; Function Attrs: inlinehint mustprogress uwtable
define linkonce_odr void @_ZSt8_DestroyIPiEvT_S1_(ptr noundef %0, ptr noundef %1) #7 comdat {
  %3 = alloca ptr, align 8
  %4 = alloca ptr, align 8
  store ptr %0, ptr %3, align 8, !tbaa !76
  store ptr %1, ptr %4, align 8, !tbaa !76
  %5 = load ptr, ptr %3, align 8, !tbaa !76
  %6 = load ptr, ptr %4, align 8, !tbaa !76
  call void @_ZNSt12_Destroy_auxILb1EE9__destroyIPiEEvT_S3_(ptr noundef %5, ptr noundef %6)
  ret void
}

; Function Attrs: mustprogress nounwind uwtable
define linkonce_odr void @_ZNSt15_Rb_tree_header8_M_resetEv(ptr noundef nonnull align 8 dereferenceable(40) %0) #1 comdat align 2 {
  %2 = alloca ptr, align 8
  store ptr %0, ptr %2, align 8, !tbaa !206
  %3 = load ptr, ptr %2, align 8
  %4 = getelementptr inbounds nuw %"struct.std::_Rb_tree_header", ptr %3, i32 0, i32 0
  %5 = getelementptr inbounds nuw %"struct.std::_Rb_tree_node_base", ptr %4, i32 0, i32 1
  store ptr null, ptr %5, align 8, !tbaa !211
  %6 = getelementptr inbounds nuw %"struct.std::_Rb_tree_header", ptr %3, i32 0, i32 0
  %7 = getelementptr inbounds nuw %"struct.std::_Rb_tree_header", ptr %3, i32 0, i32 0
  %8 = getelementptr inbounds nuw %"struct.std::_Rb_tree_node_base", ptr %7, i32 0, i32 2
  store ptr %6, ptr %8, align 8, !tbaa !212
  %9 = getelementptr inbounds nuw %"struct.std::_Rb_tree_header", ptr %3, i32 0, i32 0
  %10 = getelementptr inbounds nuw %"struct.std::_Rb_tree_header", ptr %3, i32 0, i32 0
  %11 = getelementptr inbounds nuw %"struct.std::_Rb_tree_node_base", ptr %10, i32 0, i32 3
  store ptr %9, ptr %11, align 8, !tbaa !213
  %12 = getelementptr inbounds nuw %"struct.std::_Rb_tree_header", ptr %3, i32 0, i32 1
  store i64 0, ptr %12, align 8, !tbaa !214
  ret void
}

; Function Attrs: mustprogress nounwind uwtable
define linkonce_odr noundef ptr @_ZNSt8_Rb_treeIiiSt9_IdentityIiESt4lessIiESaIiEE8_M_beginEv(ptr noundef nonnull align 8 dereferenceable(48) %0) #1 comdat align 2 {
  %2 = alloca ptr, align 8
  store ptr %0, ptr %2, align 8, !tbaa !198
  %3 = load ptr, ptr %2, align 8
  %4 = call noundef ptr @_ZNKSt8_Rb_treeIiiSt9_IdentityIiESt4lessIiESaIiEE9_M_mbeginEv(ptr noundef nonnull align 8 dereferenceable(48) %3) #18
  ret ptr %4
}

; Function Attrs: inlinehint mustprogress uwtable
define linkonce_odr void @_ZSt8_DestroyIPiiEvT_S1_RSaIT0_E(ptr noundef %0, ptr noundef %1, ptr noundef nonnull align 1 dereferenceable(1) %2) #7 comdat {
  %4 = alloca ptr, align 8
  %5 = alloca ptr, align 8
  %6 = alloca ptr, align 8
  store ptr %0, ptr %4, align 8, !tbaa !76
  store ptr %1, ptr %5, align 8, !tbaa !76
  store ptr %2, ptr %6, align 8, !tbaa !191
  %7 = load ptr, ptr %4, align 8, !tbaa !76
  %8 = load ptr, ptr %5, align 8, !tbaa !76
  call void @_ZSt8_DestroyIPiEvT_S1_(ptr noundef %7, ptr noundef %8)
  ret void
}

; Function Attrs: mustprogress nounwind uwtable
define linkonce_odr noundef nonnull align 1 dereferenceable(1) ptr @_ZNSt12_Vector_baseIiSaIiEE19_M_get_Tp_allocatorEv(ptr noundef nonnull align 8 dereferenceable(24) %0) #1 comdat align 2 {
  %2 = alloca ptr, align 8
  store ptr %0, ptr %2, align 8, !tbaa !187
  %3 = load ptr, ptr %2, align 8
  %4 = getelementptr inbounds nuw %"struct.std::_Vector_base.15", ptr %3, i32 0, i32 0
  ret ptr %4
}

; Function Attrs: mustprogress nounwind uwtable
define linkonce_odr void @_ZNSt8_Rb_treeIiiSt9_IdentityIiESt4lessIiESaIiEE5clearEv(ptr noundef nonnull align 8 dereferenceable(48) %0) #1 comdat align 2 personality ptr @__gxx_personality_v0 {
  %2 = alloca ptr, align 8
  store ptr %0, ptr %2, align 8, !tbaa !198
  %3 = load ptr, ptr %2, align 8
  %4 = call noundef ptr @_ZNSt8_Rb_treeIiiSt9_IdentityIiESt4lessIiESaIiEE8_M_beginEv(ptr noundef nonnull align 8 dereferenceable(48) %3) #18
  invoke void @_ZNSt8_Rb_treeIiiSt9_IdentityIiESt4lessIiESaIiEE8_M_eraseEPSt13_Rb_tree_nodeIiE(ptr noundef nonnull align 8 dereferenceable(48) %3, ptr noundef %4)
          to label %5 unwind label %8

5:                                                ; preds = %1
  %6 = getelementptr inbounds nuw %"class.std::_Rb_tree.24", ptr %3, i32 0, i32 0
  %7 = getelementptr inbounds i8, ptr %6, i64 8
  call void @_ZNSt15_Rb_tree_header8_M_resetEv(ptr noundef nonnull align 8 dereferenceable(40) %7)
  ret void

8:                                                ; preds = %1
  %9 = landingpad { ptr, i32 }
          catch ptr null
  %10 = extractvalue { ptr, i32 } %9, 0
  call void @__clang_call_terminate(ptr %10) #19
  unreachable
}

; Function Attrs: mustprogress nounwind uwtable
define linkonce_odr void @_ZNSt6vectorIiSaIiEE15_M_erase_at_endEPi(ptr noundef nonnull align 8 dereferenceable(24) %0, ptr noundef %1) #1 comdat align 2 personality ptr @__gxx_personality_v0 {
  %3 = alloca ptr, align 8
  %4 = alloca ptr, align 8
  %5 = alloca i64, align 8
  store ptr %0, ptr %3, align 8, !tbaa !66
  store ptr %1, ptr %4, align 8, !tbaa !76
  %6 = load ptr, ptr %3, align 8
  call void @llvm.lifetime.start.p0(i64 8, ptr %5) #18
  %7 = getelementptr inbounds nuw %"struct.std::_Vector_base.15", ptr %6, i32 0, i32 0
  %8 = getelementptr inbounds nuw %"struct.std::_Vector_base<int, std::allocator<int>>::_Vector_impl_data", ptr %7, i32 0, i32 1
  %9 = load ptr, ptr %8, align 8, !tbaa !70
  %10 = load ptr, ptr %4, align 8, !tbaa !76
  %11 = ptrtoint ptr %9 to i64
  %12 = ptrtoint ptr %10 to i64
  %13 = sub i64 %11, %12
  %14 = sdiv exact i64 %13, 4
  store i64 %14, ptr %5, align 8, !tbaa !78
  %15 = load i64, ptr %5, align 8, !tbaa !78
  %16 = icmp ne i64 %15, 0
  br i1 %16, label %17, label %27

17:                                               ; preds = %2
  %18 = load ptr, ptr %4, align 8, !tbaa !76
  %19 = getelementptr inbounds nuw %"struct.std::_Vector_base.15", ptr %6, i32 0, i32 0
  %20 = getelementptr inbounds nuw %"struct.std::_Vector_base<int, std::allocator<int>>::_Vector_impl_data", ptr %19, i32 0, i32 1
  %21 = load ptr, ptr %20, align 8, !tbaa !70
  %22 = call noundef nonnull align 1 dereferenceable(1) ptr @_ZNSt12_Vector_baseIiSaIiEE19_M_get_Tp_allocatorEv(ptr noundef nonnull align 8 dereferenceable(24) %6) #18
  invoke void @_ZSt8_DestroyIPiiEvT_S1_RSaIT0_E(ptr noundef %18, ptr noundef %21, ptr noundef nonnull align 1 dereferenceable(1) %22)
          to label %23 unwind label %28

23:                                               ; preds = %17
  %24 = load ptr, ptr %4, align 8, !tbaa !76
  %25 = getelementptr inbounds nuw %"struct.std::_Vector_base.15", ptr %6, i32 0, i32 0
  %26 = getelementptr inbounds nuw %"struct.std::_Vector_base<int, std::allocator<int>>::_Vector_impl_data", ptr %25, i32 0, i32 1
  store ptr %24, ptr %26, align 8, !tbaa !70
  br label %27

27:                                               ; preds = %23, %2
  call void @llvm.lifetime.end.p0(i64 8, ptr %5) #18
  ret void

28:                                               ; preds = %17
  %29 = landingpad { ptr, i32 }
          catch ptr null
  %30 = extractvalue { ptr, i32 } %29, 0
  call void @__clang_call_terminate(ptr %30) #19
  unreachable
}

; Function Attrs: mustprogress nounwind uwtable
define linkonce_odr void @_ZNSt3setIiSt4lessIiESaIiEE5clearEv(ptr noundef nonnull align 8 dereferenceable(48) %0) #1 comdat align 2 {
  %2 = alloca ptr, align 8
  store ptr %0, ptr %2, align 8, !tbaa !67
  %3 = load ptr, ptr %2, align 8
  %4 = getelementptr inbounds nuw %"class.std::set", ptr %3, i32 0, i32 0
  call void @_ZNSt8_Rb_treeIiiSt9_IdentityIiESt4lessIiESaIiEE5clearEv(ptr noundef nonnull align 8 dereferenceable(48) %4) #18
  ret void
}

; Function Attrs: mustprogress nounwind uwtable
define linkonce_odr void @_ZNSt6vectorIiSaIiEE5clearEv(ptr noundef nonnull align 8 dereferenceable(24) %0) #1 comdat align 2 {
  %2 = alloca ptr, align 8
  store ptr %0, ptr %2, align 8, !tbaa !66
  %3 = load ptr, ptr %2, align 8
  %4 = getelementptr inbounds nuw %"struct.std::_Vector_base.15", ptr %3, i32 0, i32 0
  %5 = getelementptr inbounds nuw %"struct.std::_Vector_base<int, std::allocator<int>>::_Vector_impl_data", ptr %4, i32 0, i32 0
  %6 = load ptr, ptr %5, align 8, !tbaa !69
  call void @_ZNSt6vectorIiSaIiEE15_M_erase_at_endEPi(ptr noundef nonnull align 8 dereferenceable(24) %3, ptr noundef %6) #18
  ret void
}

; Function Attrs: mustprogress uwtable
define void @_ZN9ezMiniSAT5clearEv(ptr noundef nonnull align 8 dereferenceable(376) %0) unnamed_addr #3 align 2 {
  %2 = alloca ptr, align 8
  store ptr %0, ptr %2, align 8, !tbaa !14
  %3 = load ptr, ptr %2, align 8
  %4 = getelementptr inbounds nuw %class.ezMiniSAT, ptr %3, i32 0, i32 1
  %5 = load ptr, ptr %4, align 8, !tbaa !18
  %6 = icmp ne ptr %5, null
  br i1 %6, label %7, label %17

7:                                                ; preds = %1
  %8 = getelementptr inbounds nuw %class.ezMiniSAT, ptr %3, i32 0, i32 1
  %9 = load ptr, ptr %8, align 8, !tbaa !18
  %10 = icmp eq ptr %9, null
  br i1 %10, label %15, label %11

11:                                               ; preds = %7
  %12 = load ptr, ptr %9, align 8, !tbaa !16
  %13 = getelementptr inbounds ptr, ptr %12, i64 1
  %14 = load ptr, ptr %13, align 8
  call void %14(ptr noundef nonnull align 8 dereferenceable(1196) %9) #18
  br label %15

15:                                               ; preds = %11, %7
  %16 = getelementptr inbounds nuw %class.ezMiniSAT, ptr %3, i32 0, i32 1
  store ptr null, ptr %16, align 8, !tbaa !18
  br label %17

17:                                               ; preds = %15, %1
  %18 = getelementptr inbounds nuw %class.ezMiniSAT, ptr %3, i32 0, i32 3
  store i8 0, ptr %18, align 8, !tbaa !64
  %19 = getelementptr inbounds nuw %class.ezMiniSAT, ptr %3, i32 0, i32 2
  call void @_ZNSt6vectorIiSaIiEE5clearEv(ptr noundef nonnull align 8 dereferenceable(24) %19) #18
  %20 = getelementptr inbounds nuw %class.ezMiniSAT, ptr %3, i32 0, i32 4
  call void @_ZNSt3setIiSt4lessIiESaIiEE5clearEv(ptr noundef nonnull align 8 dereferenceable(48) %20) #18
  call void @_ZN5ezSAT5clearEv(ptr noundef nonnull align 8 dereferenceable(284) %3)
  ret void
}