; Function Attrs: mustprogress uwtable
define void @_ZN9ezMiniSAT5clearEv(ptr noundef nonnull align 8 dereferenceable(376) initializes((320, 321)) %0) unnamed_addr #0 align 2 personality ptr @__gxx_personality_v0 {
  %2 = getelementptr inbounds nuw i8, ptr %0, i64 288
  %3 = load ptr, ptr %2, align 8, !tbaa !21
  %.not = icmp eq ptr %3, null
  br i1 %.not, label %8, label %4

4:                                                ; preds = %1
  %5 = load ptr, ptr %3, align 8, !tbaa !6
  %6 = getelementptr inbounds nuw i8, ptr %5, i64 8
  %7 = load ptr, ptr %6, align 8
  tail call void %7(ptr noundef nonnull align 8 dereferenceable(1196) %3) #21
  store ptr null, ptr %2, align 8, !tbaa !21
  br label %8

8:                                                ; preds = %4, %1
  %9 = getelementptr inbounds nuw i8, ptr %0, i64 320
  store i8 0, ptr %9, align 8, !tbaa !62
  %10 = getelementptr inbounds nuw i8, ptr %0, i64 296
  %11 = load ptr, ptr %10, align 8, !tbaa !64
  %12 = getelementptr inbounds nuw i8, ptr %0, i64 304
  %13 = load ptr, ptr %12, align 8, !tbaa !66
  %.not.i.i = icmp eq ptr %13, %11
  br i1 %.not.i.i, label %_ZNSt6vectorIiSaIiEE5clearEv.exit, label %14

14:                                               ; preds = %8
  store ptr %11, ptr %12, align 8, !tbaa !66
  br label %_ZNSt6vectorIiSaIiEE5clearEv.exit

_ZNSt6vectorIiSaIiEE5clearEv.exit:                ; preds = %8, %14
  %15 = getelementptr inbounds nuw i8, ptr %0, i64 328
  %16 = getelementptr inbounds nuw i8, ptr %0, i64 344
  %17 = load ptr, ptr %16, align 8, !tbaa !17
  invoke void @_ZNSt8_Rb_treeIiiSt9_IdentityIiESt4lessIiESaIiEE8_M_eraseEPSt13_Rb_tree_nodeIiE(ptr noundef nonnull align 8 dereferenceable(48) %15, ptr noundef %17)
          to label %_ZNSt3setIiSt4lessIiESaIiEE5clearEv.exit unwind label %18

18:                                               ; preds = %_ZNSt6vectorIiSaIiEE5clearEv.exit
  %19 = landingpad { ptr, i32 }
          catch ptr null
  %20 = extractvalue { ptr, i32 } %19, 0
  tail call void @__clang_call_terminate(ptr %20) #23
  unreachable

_ZNSt3setIiSt4lessIiESaIiEE5clearEv.exit:         ; preds = %_ZNSt6vectorIiSaIiEE5clearEv.exit
  %21 = getelementptr inbounds nuw i8, ptr %0, i64 336
  store ptr null, ptr %16, align 8, !tbaa !17
  %22 = getelementptr inbounds nuw i8, ptr %0, i64 352
  store ptr %21, ptr %22, align 8, !tbaa !18
  %23 = getelementptr inbounds nuw i8, ptr %0, i64 360
  store ptr %21, ptr %23, align 8, !tbaa !19
  %24 = getelementptr inbounds nuw i8, ptr %0, i64 368
  store i64 0, ptr %24, align 8, !tbaa !20
  tail call void @_ZN5ezSAT5clearEv(ptr noundef nonnull align 8 dereferenceable(284) %0)
  ret void
}